Certificate:
    Data:
        Version: 3 (0x2)
        Serial Number: 1 (0x1)
        Signature Algorithm: sha1WithRSAEncryption
        Issuer: DC=org, DC=simple, O=Simple Inc, OU=Simple Signing CA, CN=Simple Signing CA
        Validity
            Not Before: Dec  1 05:34:52 2023 GMT
            Not After : Nov 30 05:34:52 2025 GMT
        Subject: DC=org, DC=simple, O=Simple Inc, CN=Fred Flintstone
        Subject Public Key Info:
            Public Key Algorithm: rsaEncryption
                RSA Public-Key: (2048 bit)
                Modulus:
                    00:df:89:f5:91:a5:2e:48:48:16:aa:c2:23:b3:74:
                    48:7e:c3:ad:b2:cf:0b:19:82:b2:c3:12:5a:d3:85:
                    20:e7:9a:2a:21:3d:8c:1b:52:bf:1d:37:ad:e8:57:
                    f8:ed:ff:2b:0b:e0:16:84:a0:e3:5b:1a:c1:db:3f:
                    cc:02:9a:4e:ad:8c:03:6b:52:81:40:e9:de:08:84:
                    ad:da:69:3c:5c:c4:3a:65:88:56:82:4d:a1:b0:b1:
                    fc:06:79:4b:88:05:6d:f0:16:43:4c:18:06:2b:1c:
                    7d:d3:77:7b:fd:71:9b:7e:51:94:27:54:27:f9:53:
                    df:65:f4:ba:3b:14:d3:18:8a:72:13:12:7e:d3:8e:
                    eb:99:c6:b5:4a:e9:c2:dc:df:7e:28:fc:cf:a5:16:
                    61:1b:88:2b:01:75:7d:6d:39:00:9a:9a:a5:15:69:
                    66:81:6f:8c:36:54:07:19:56:f1:22:03:f1:7a:c8:
                    b7:0a:60:d8:87:59:88:50:c1:8a:90:ff:dc:56:bf:
                    ad:8a:09:8c:b0:7f:3e:63:a6:a0:e6:de:04:43:05:
                    da:8a:63:52:56:0f:a4:93:84:ea:1c:7f:96:17:4a:
                    d4:9a:84:69:6e:95:c5:be:81:7f:57:53:db:2f:85:
                    36:b4:b7:88:9f:d9:49:de:3c:ba:71:b0:2b:71:f4:
                    88:73
                Exponent: 65537 (0x10001)
        X509v3 extensions:
            X509v3 Key Usage: critical
                Digital Signature, Key Encipherment
            X509v3 Basic Constraints: 
                CA:FALSE
            X509v3 Extended Key Usage: 
                E-mail Protection, TLS Web Client Authentication
            X509v3 Subject Key Identifier: 
                45:E8:DE:DD:DA:16:AD:16:1E:06:A9:CC:CC:3B:DC:AA:EE:1C:F6:0C
            X509v3 Authority Key Identifier: 
                keyid:C4:3A:5E:D3:56:0A:87:B7:3F:A3:F6:C4:79:14:F2:36:6A:23:D5:B1

            X509v3 Subject Alternative Name: 
                email:fred@simple.org
    Signature Algorithm: sha1WithRSAEncryption
         90:40:95:c5:c5:65:b4:11:a8:ea:2e:66:bb:71:a9:f1:2e:a4:
         2e:42:02:f6:81:67:58:82:7f:cb:ec:07:2f:dd:38:97:fc:15:
         fb:11:60:64:bb:83:08:b7:51:5f:9e:5e:a6:b2:b1:bf:56:18:
         08:2f:f5:70:e0:4c:06:38:a5:6b:be:e6:05:38:d0:06:64:5e:
         97:86:6a:35:24:c9:02:33:57:a0:50:10:ca:80:4d:02:5f:71:
         3c:c7:ac:98:60:6b:03:1f:7a:d9:97:9a:fe:f2:f9:cc:1b:02:
         b4:e5:6b:84:fe:6d:a6:0f:69:b0:19:b5:5e:1d:83:94:ac:cd:
         68:b6:08:72:9c:d3:7f:f0:ce:2b:4c:80:8f:2c:6f:7d:db:f0:
         11:ed:fd:bd:98:e7:ae:b3:a2:92:fc:42:2c:76:79:e7:47:5d:
         56:05:b7:8f:82:de:4f:34:a2:d6:ef:d6:1d:d1:09:e8:b8:63:
         ad:5a:11:3f:eb:e4:f6:c8:0f:20:4b:a3:ed:7e:04:64:cb:de:
         b4:fc:f0:c8:ca:f0:82:5c:52:bc:83:ab:ad:34:99:8a:98:6a:
         b8:f1:4c:54:30:ed:61:aa:1c:dd:a1:c0:d3:27:5a:de:5c:96:
         92:42:a7:32:69:5e:37:2d:db:f1:a2:0c:dd:2e:6b:83:86:a5:
         85:ac:34:7d
-----BEGIN CERTIFICATE-----
MIID6zCCAtOgAwIBAgIBATANBgkqhkiG9w0BAQUFADB6MRMwEQYKCZImiZPyLGQB
GRYDb3JnMRYwFAYKCZImiZPyLGQBGRYGc2ltcGxlMRMwEQYDVQQKDApTaW1wbGUg
SW5jMRowGAYDVQQLDBFTaW1wbGUgU2lnbmluZyBDQTEaMBgGA1UEAwwRU2ltcGxl
IFNpZ25pbmcgQ0EwHhcNMjMxMjAxMDUzNDUyWhcNMjUxMTMwMDUzNDUyWjBcMRMw
EQYKCZImiZPyLGQBGRYDb3JnMRYwFAYKCZImiZPyLGQBGRYGc2ltcGxlMRMwEQYD
VQQKDApTaW1wbGUgSW5jMRgwFgYDVQQDDA9GcmVkIEZsaW50c3RvbmUwggEiMA0G
CSqGSIb3DQEBAQUAA4IBDwAwggEKAoIBAQDfifWRpS5ISBaqwiOzdEh+w62yzwsZ
grLDElrThSDnmiohPYwbUr8dN63oV/jt/ysL4BaEoONbGsHbP8wCmk6tjANrUoFA
6d4IhK3aaTxcxDpliFaCTaGwsfwGeUuIBW3wFkNMGAYrHH3Td3v9cZt+UZQnVCf5
U99l9Lo7FNMYinITEn7TjuuZxrVK6cLc334o/M+lFmEbiCsBdX1tOQCamqUVaWaB
b4w2VAcZVvEiA/F6yLcKYNiHWYhQwYqQ/9xWv62KCYywfz5jpqDm3gRDBdqKY1JW
D6SThOocf5YXStSahGlulcW+gX9XU9svhTa0t4if2UnePLpxsCtx9IhzAgMBAAGj
gZkwgZYwDgYDVR0PAQH/BAQDAgWgMAkGA1UdEwQCMAAwHQYDVR0lBBYwFAYIKwYB
BQUHAwQGCCsGAQUFBwMCMB0GA1UdDgQWBBRF6N7d2hatFh4GqczMO9yq7hz2DDAf
BgNVHSMEGDAWgBTEOl7TVgqHtz+j9sR5FPI2aiPVsTAaBgNVHREEEzARgQ9mcmVk
QHNpbXBsZS5vcmcwDQYJKoZIhvcNAQEFBQADggEBAJBAlcXFZbQRqOouZrtxqfEu
pC5CAvaBZ1iCf8vsBy/dOJf8FfsRYGS7gwi3UV+eXqaysb9WGAgv9XDgTAY4pWu+
5gU40AZkXpeGajUkyQIzV6BQEMqATQJfcTzHrJhgawMfetmXmv7y+cwbArTla4T+
baYPabAZtV4dg5SszWi2CHKc03/wzitMgI8sb33b8BHt/b2Y566zopL8Qix2eedH
XVYFt4+C3k80otbv1h3RCei4Y61aET/r5PbIDyBLo+1+BGTL3rT88MjK8IJcUryD
q600mYqYarjxTFQw7WGqHN2hwNMnWt5clpJCpzJpXjct2/GiDN0ua4OGpYWsNH0=
-----END CERTIFICATE-----
