Certificate:
    Data:
        Version: 3 (0x2)
        Serial Number: 1 (0x1)
        Signature Algorithm: sha1WithRSAEncryption
        Issuer: DC=org, DC=simple, O=Simple Inc, OU=Simple Root CA, CN=Simple Root CA
        Validity
            Not Before: Dec  1 05:14:49 2023 GMT
            Not After : Nov 30 05:14:49 2033 GMT
        Subject: DC=org, DC=simple, O=Simple Inc, OU=Simple Root CA, CN=Simple Root CA
        Subject Public Key Info:
            Public Key Algorithm: rsaEncryption
                RSA Public-Key: (2048 bit)
                Modulus:
                    00:ad:c4:12:95:14:a0:f5:f6:ef:c9:26:0a:4b:45:
                    d0:fe:c3:0b:07:e5:7f:a0:c1:4f:b8:ca:b2:0d:df:
                    65:8b:64:ae:a2:2d:b3:63:ee:15:02:67:33:70:75:
                    8f:eb:e7:d6:ee:b8:12:91:4a:61:10:64:50:a6:77:
                    7e:a2:86:fe:2c:b0:06:6a:04:6e:88:e2:9c:ac:4e:
                    a9:f0:d9:11:9c:a2:60:c0:10:be:20:25:19:e9:46:
                    d7:97:77:03:e2:64:96:85:55:4f:42:31:d8:1f:75:
                    94:e2:20:e7:95:7e:e5:b9:76:91:59:e6:98:04:73:
                    71:a8:c8:7a:39:1d:fe:7c:39:27:4f:20:4d:12:f3:
                    0b:c3:7a:80:4f:4c:ed:6f:0e:90:50:08:47:45:fc:
                    b3:fd:be:0c:43:8a:cd:29:ec:c5:a2:68:9a:dc:cb:
                    03:f4:32:70:5d:f5:2f:11:ec:0d:15:f0:eb:6d:d4:
                    09:60:ba:35:d2:0f:e5:07:07:d1:49:76:b9:e4:57:
                    d8:b3:80:73:c9:cd:bd:5c:bb:a1:31:31:da:6b:72:
                    cd:d0:0d:da:20:a4:1d:14:25:09:29:76:67:80:21:
                    75:f5:d2:71:48:31:48:a9:b8:78:35:bc:c4:56:80:
                    78:96:d4:ad:96:9e:37:a0:3f:84:6d:1c:3f:05:ca:
                    1a:55
                Exponent: 65537 (0x10001)
        X509v3 extensions:
            X509v3 Key Usage: critical
                Certificate Sign, CRL Sign
            X509v3 Basic Constraints: critical
                CA:TRUE
            X509v3 Subject Key Identifier: 
                E5:74:D9:BE:99:72:20:23:4C:09:DC:A2:0D:43:A4:16:1D:65:B0:EC
            X509v3 Authority Key Identifier: 
                keyid:E5:74:D9:BE:99:72:20:23:4C:09:DC:A2:0D:43:A4:16:1D:65:B0:EC

    Signature Algorithm: sha1WithRSAEncryption
         49:55:62:a9:53:4f:04:60:48:ce:58:1f:40:e1:b7:e1:4a:78:
         ef:11:17:56:ac:68:1e:88:81:aa:a0:31:15:79:78:47:6e:03:
         9f:d7:65:40:38:bb:fa:59:88:f0:a9:ca:09:c1:65:73:29:dc:
         d2:3c:df:36:ef:5a:84:22:c5:71:47:52:8e:0d:40:21:07:4d:
         d9:3f:53:8c:61:b9:75:9b:bf:4d:a4:0c:cd:3e:17:cf:22:18:
         83:0b:d3:eb:52:59:65:40:5e:06:a8:95:0a:54:87:ad:05:32:
         9b:0e:e8:a4:67:37:31:7b:c3:e3:d4:81:10:bb:a6:18:cb:dd:
         6a:b9:23:14:f8:4b:29:68:68:bb:5d:00:22:6f:f7:2b:01:4f:
         ae:5a:b1:c8:a5:1c:01:f9:5b:01:2e:6c:61:86:b1:d2:56:fe:
         ec:0a:6d:81:47:7b:e2:ec:5f:e2:29:0c:31:53:9f:a9:2c:1b:
         2d:79:6f:42:96:55:b8:68:51:1d:91:c6:c4:22:fb:73:1c:bc:
         74:01:1d:96:d3:df:e3:4d:1c:72:97:d9:be:78:79:58:47:e6:
         e2:41:a8:1b:a6:c7:90:7d:db:b1:f9:01:3f:9d:3f:07:7e:ae:
         0c:af:8b:6a:42:62:ca:d3:ca:78:5b:f0:08:40:ef:73:40:8b:
         bd:4e:3f:ae
-----BEGIN CERTIFICATE-----
MIIDxjCCAq6gAwIBAgIBATANBgkqhkiG9w0BAQUFADB0MRMwEQYKCZImiZPyLGQB
GRYDb3JnMRYwFAYKCZImiZPyLGQBGRYGc2ltcGxlMRMwEQYDVQQKDApTaW1wbGUg
SW5jMRcwFQYDVQQLDA5TaW1wbGUgUm9vdCBDQTEXMBUGA1UEAwwOU2ltcGxlIFJv
b3QgQ0EwHhcNMjMxMjAxMDUxNDQ5WhcNMzMxMTMwMDUxNDQ5WjB0MRMwEQYKCZIm
iZPyLGQBGRYDb3JnMRYwFAYKCZImiZPyLGQBGRYGc2ltcGxlMRMwEQYDVQQKDApT
aW1wbGUgSW5jMRcwFQYDVQQLDA5TaW1wbGUgUm9vdCBDQTEXMBUGA1UEAwwOU2lt
cGxlIFJvb3QgQ0EwggEiMA0GCSqGSIb3DQEBAQUAA4IBDwAwggEKAoIBAQCtxBKV
FKD19u/JJgpLRdD+wwsH5X+gwU+4yrIN32WLZK6iLbNj7hUCZzNwdY/r59buuBKR
SmEQZFCmd36ihv4ssAZqBG6I4pysTqnw2RGcomDAEL4gJRnpRteXdwPiZJaFVU9C
MdgfdZTiIOeVfuW5dpFZ5pgEc3GoyHo5Hf58OSdPIE0S8wvDeoBPTO1vDpBQCEdF
/LP9vgxDis0p7MWiaJrcywP0MnBd9S8R7A0V8Ott1AlgujXSD+UHB9FJdrnkV9iz
gHPJzb1cu6ExMdprcs3QDdogpB0UJQkpdmeAIXX10nFIMUipuHg1vMRWgHiW1K2W
njegP4RtHD8FyhpVAgMBAAGjYzBhMA4GA1UdDwEB/wQEAwIBBjAPBgNVHRMBAf8E
BTADAQH/MB0GA1UdDgQWBBTldNm+mXIgI0wJ3KINQ6QWHWWw7DAfBgNVHSMEGDAW
gBTldNm+mXIgI0wJ3KINQ6QWHWWw7DANBgkqhkiG9w0BAQUFAAOCAQEASVViqVNP
BGBIzlgfQOG34Up47xEXVqxoHoiBqqAxFXl4R24Dn9dlQDi7+lmI8KnKCcFlcync
0jzfNu9ahCLFcUdSjg1AIQdN2T9TjGG5dZu/TaQMzT4XzyIYgwvT61JZZUBeBqiV
ClSHrQUymw7opGc3MXvD49SBELumGMvdarkjFPhLKWhou10AIm/3KwFPrlqxyKUc
AflbAS5sYYax0lb+7AptgUd74uxf4ikMMVOfqSwbLXlvQpZVuGhRHZHGxCL7cxy8
dAEdltPf400ccpfZvnh5WEfm4kGoG6bHkH3bsfkBP50/B36uDK+LakJiytPKeFvw
CEDvc0CLvU4/rg==
-----END CERTIFICATE-----
