Certificate:
    Data:
        Version: 3 (0x2)
        Serial Number: 2 (0x2)
        Signature Algorithm: sha1WithRSAEncryption
        Issuer: DC=org, DC=simple, O=Simple Inc, OU=Simple Signing CA, CN=Simple Signing CA
        Validity
            Not Before: Dec  1 05:43:10 2023 GMT
            Not After : Nov 30 05:43:10 2025 GMT
        Subject: DC=org, DC=simple, O=Simple Inc, CN=www.simple.org
        Subject Public Key Info:
            Public Key Algorithm: rsaEncryption
                RSA Public-Key: (2048 bit)
                Modulus:
                    00:b9:98:4a:a9:e8:03:8a:d2:b8:e8:ba:4a:84:eb:
                    1e:84:98:a3:39:e3:86:4c:46:31:30:f2:fe:dd:2b:
                    2a:41:db:1f:16:14:f6:37:ba:b6:a1:ee:e5:5b:14:
                    7f:9c:c4:e8:3b:48:8d:e2:9e:00:99:99:33:02:fa:
                    ad:14:ae:c3:d0:3f:51:4e:56:c9:8d:b5:95:4a:94:
                    20:e2:eb:cf:54:af:0b:11:a9:b7:2e:b7:e3:7f:9f:
                    b7:df:aa:01:fd:93:56:a7:64:df:ea:be:42:12:a7:
                    ce:43:2e:cb:c8:7c:da:4f:83:58:86:01:d4:d6:57:
                    9e:ec:85:77:d4:58:4e:98:63:75:48:5e:7d:68:83:
                    14:e9:88:7f:86:15:17:e3:fa:06:8c:b9:b2:00:3f:
                    d2:37:8a:0d:1f:ba:20:6f:fc:fd:64:bf:df:fc:0f:
                    87:61:62:29:49:43:0e:5b:c8:da:c9:c3:1e:97:1c:
                    96:b8:ec:72:92:56:02:66:3e:e3:34:bd:8d:78:24:
                    c0:65:bf:03:ce:d8:79:99:58:7f:5c:a2:97:4e:15:
                    e0:c5:2d:53:29:0e:67:fa:e1:9f:a7:4a:16:57:1f:
                    12:3a:b8:e7:a4:83:1c:60:73:52:0f:f0:86:36:54:
                    c2:b6:9b:a5:8d:8f:49:64:b8:9b:e7:9f:5b:97:32:
                    58:95
                Exponent: 65537 (0x10001)
        X509v3 extensions:
            X509v3 Key Usage: critical
                Digital Signature, Key Encipherment
            X509v3 Basic Constraints: 
                CA:FALSE
            X509v3 Extended Key Usage: 
                TLS Web Server Authentication, TLS Web Client Authentication
            X509v3 Subject Key Identifier: 
                AA:A0:02:1C:63:1F:8A:39:88:5A:48:8A:EB:AB:AD:E9:EC:7E:A1:39
            X509v3 Authority Key Identifier: 
                keyid:C4:3A:5E:D3:56:0A:87:B7:3F:A3:F6:C4:79:14:F2:36:6A:23:D5:B1

            X509v3 Subject Alternative Name: 
                DNS:www.simple.org
    Signature Algorithm: sha1WithRSAEncryption
         65:d5:76:e2:15:f5:1d:e5:bb:a4:38:df:46:d6:89:bb:09:d7:
         8d:05:07:ba:58:bb:ee:07:ed:50:4d:21:b7:cd:9d:eb:4e:8f:
         1f:d0:cd:8e:d4:cd:e9:a3:85:07:72:f9:af:1c:a5:76:80:ab:
         6c:6c:6f:cf:b8:64:f6:88:a7:7a:40:71:dc:42:6f:b7:15:54:
         db:14:e8:af:2b:25:5b:1c:bc:6d:44:03:58:35:03:b6:f8:44:
         b1:8c:50:53:ed:8c:78:81:14:ab:ba:78:f9:bc:62:a5:1f:3b:
         08:3d:ee:36:d0:f1:c1:68:ce:a9:9d:09:b8:96:1b:e7:69:89:
         0a:60:c9:c5:3d:40:87:c0:12:4c:d7:f3:e4:7d:e5:8d:d0:dd:
         6f:d9:b1:52:4b:ab:05:ca:1e:df:37:53:12:cf:4e:e7:58:47:
         c9:8d:c1:04:3a:02:fc:d2:11:fa:05:1f:6c:58:a1:80:f3:84:
         59:af:c0:af:96:7e:bd:57:a0:95:52:e4:d2:57:46:e2:11:0d:
         7a:b0:6b:ce:ea:e8:4f:fa:a9:1b:14:a5:dc:8e:8e:7d:e7:0f:
         62:10:34:26:a7:f1:37:ef:e7:b5:7b:09:39:3e:14:bc:24:8a:
         96:1d:cb:c5:4c:bc:64:e9:62:e1:e5:79:18:ca:14:85:aa:28:
         fa:53:5b:c4
-----BEGIN CERTIFICATE-----
MIID6TCCAtGgAwIBAgIBAjANBgkqhkiG9w0BAQUFADB6MRMwEQYKCZImiZPyLGQB
GRYDb3JnMRYwFAYKCZImiZPyLGQBGRYGc2ltcGxlMRMwEQYDVQQKDApTaW1wbGUg
SW5jMRowGAYDVQQLDBFTaW1wbGUgU2lnbmluZyBDQTEaMBgGA1UEAwwRU2ltcGxl
IFNpZ25pbmcgQ0EwHhcNMjMxMjAxMDU0MzEwWhcNMjUxMTMwMDU0MzEwWjBbMRMw
EQYKCZImiZPyLGQBGRYDb3JnMRYwFAYKCZImiZPyLGQBGRYGc2ltcGxlMRMwEQYD
VQQKDApTaW1wbGUgSW5jMRcwFQYDVQQDDA53d3cuc2ltcGxlLm9yZzCCASIwDQYJ
KoZIhvcNAQEBBQADggEPADCCAQoCggEBALmYSqnoA4rSuOi6SoTrHoSYoznjhkxG
MTDy/t0rKkHbHxYU9je6tqHu5VsUf5zE6DtIjeKeAJmZMwL6rRSuw9A/UU5WyY21
lUqUIOLrz1SvCxGpty6343+ft9+qAf2TVqdk3+q+QhKnzkMuy8h82k+DWIYB1NZX
nuyFd9RYTphjdUhefWiDFOmIf4YVF+P6Boy5sgA/0jeKDR+6IG/8/WS/3/wPh2Fi
KUlDDlvI2snDHpcclrjscpJWAmY+4zS9jXgkwGW/A87YeZlYf1yil04V4MUtUykO
Z/rhn6dKFlcfEjq456SDHGBzUg/whjZUwrabpY2PSWS4m+efW5cyWJUCAwEAAaOB
mDCBlTAOBgNVHQ8BAf8EBAMCBaAwCQYDVR0TBAIwADAdBgNVHSUEFjAUBggrBgEF
BQcDAQYIKwYBBQUHAwIwHQYDVR0OBBYEFKqgAhxjH4o5iFpIiuurrensfqE5MB8G
A1UdIwQYMBaAFMQ6XtNWCoe3P6P2xHkU8jZqI9WxMBkGA1UdEQQSMBCCDnd3dy5z
aW1wbGUub3JnMA0GCSqGSIb3DQEBBQUAA4IBAQBl1XbiFfUd5bukON9G1om7CdeN
BQe6WLvuB+1QTSG3zZ3rTo8f0M2O1M3po4UHcvmvHKV2gKtsbG/PuGT2iKd6QHHc
Qm+3FVTbFOivKyVbHLxtRANYNQO2+ESxjFBT7Yx4gRSrunj5vGKlHzsIPe420PHB
aM6pnQm4lhvnaYkKYMnFPUCHwBJM1/PkfeWN0N1v2bFSS6sFyh7fN1MSz07nWEfJ
jcEEOgL80hH6BR9sWKGA84RZr8Cvln69V6CVUuTSV0biEQ16sGvO6uhP+qkbFKXc
jo595w9iEDQmp/E37+e1ewk5PhS8JIqWHcvFTLxk6WLh5XkYyhSFqij6U1vE
-----END CERTIFICATE-----
