Certificate:
    Data:
        Version: 3 (0x2)
        Serial Number: 2 (0x2)
        Signature Algorithm: sha1WithRSAEncryption
        Issuer: DC=org, DC=simple, O=Simple Inc, OU=Simple Root CA, CN=Simple Root CA
        Validity
            Not Before: Dec  1 05:17:51 2023 GMT
            Not After : Nov 30 05:17:51 2033 GMT
        Subject: DC=org, DC=simple, O=Simple Inc, OU=Simple Signing CA, CN=Simple Signing CA
        Subject Public Key Info:
            Public Key Algorithm: rsaEncryption
                RSA Public-Key: (2048 bit)
                Modulus:
                    00:ca:8a:12:a8:5f:6f:ab:6d:5a:2f:e8:aa:e8:d7:
                    76:0d:ce:30:d6:c7:51:42:16:d4:48:37:22:3a:e7:
                    62:29:e5:8d:0c:6d:3e:f1:b0:bd:0e:49:99:2b:00:
                    11:10:fa:11:c3:71:dd:03:3b:74:f8:21:d5:cf:81:
                    c1:fc:35:37:fd:8b:3e:c8:ff:7d:2e:0b:b1:c1:e9:
                    bf:f9:af:c7:d6:60:67:2d:a0:1c:a5:17:22:09:95:
                    42:b6:76:82:fb:ee:fe:32:2e:64:e1:c6:52:ea:f9:
                    ea:b4:40:0c:5f:94:c9:8b:4a:cb:61:5f:b1:e6:9b:
                    78:30:0f:67:bd:02:bc:00:76:f7:f4:1a:62:9e:d4:
                    cf:ea:f7:ae:4e:16:ed:b8:62:a1:e9:62:cb:c9:14:
                    82:d4:c8:b1:ba:ac:a3:6b:97:81:2b:a0:d4:2a:35:
                    93:26:96:ce:97:8c:5f:1a:ea:0f:13:66:8c:9a:9d:
                    ee:38:fc:32:65:ad:ff:aa:7d:6b:2c:7d:d5:28:9b:
                    ce:e1:f5:9f:96:a5:9f:43:ed:77:0a:5a:2b:98:b9:
                    58:53:cb:1a:ac:46:33:0e:cc:c3:d8:89:91:54:eb:
                    b8:82:97:e9:5c:8c:99:b0:45:99:60:01:b4:06:b8:
                    59:e8:38:72:a6:0f:87:b7:7b:59:7d:19:cb:e2:ce:
                    82:cf
                Exponent: 65537 (0x10001)
        X509v3 extensions:
            X509v3 Key Usage: critical
                Certificate Sign, CRL Sign
            X509v3 Basic Constraints: critical
                CA:TRUE, pathlen:0
            X509v3 Subject Key Identifier: 
                C4:3A:5E:D3:56:0A:87:B7:3F:A3:F6:C4:79:14:F2:36:6A:23:D5:B1
            X509v3 Authority Key Identifier: 
                keyid:E5:74:D9:BE:99:72:20:23:4C:09:DC:A2:0D:43:A4:16:1D:65:B0:EC

    Signature Algorithm: sha1WithRSAEncryption
         22:c0:20:83:cb:2c:7b:6d:af:a1:82:40:e9:7b:fe:78:84:c0:
         14:58:23:64:06:96:79:80:38:91:a8:87:85:78:b0:91:81:09:
         60:84:d2:96:16:de:99:41:7d:1a:04:3c:1e:af:38:8b:bb:d1:
         7a:84:6a:1a:d5:27:66:00:58:e8:b2:51:89:4f:5f:8a:de:16:
         13:f2:4b:42:c1:9b:30:b4:77:f8:ef:cd:07:0d:a2:3e:c2:aa:
         8a:d7:ec:12:72:49:a4:5b:51:b7:44:e1:68:67:6b:28:a7:63:
         e9:ed:75:bc:a0:d2:b2:39:04:c5:b6:c5:7d:67:b0:60:dc:1d:
         12:11:c6:c8:93:ba:38:de:45:5b:3d:a9:c1:46:17:fa:a3:7d:
         ba:a7:bc:ee:7f:7c:fb:c8:98:3c:9e:fa:6b:67:b0:fa:d5:30:
         48:46:ce:48:a3:e3:81:98:ef:4a:0e:37:9b:af:b1:b1:cc:2b:
         53:04:4c:6e:54:48:4a:dc:78:9c:90:2f:f9:71:54:8a:5b:40:
         b1:98:08:f9:cd:8b:72:48:c3:e7:db:80:64:09:45:31:b4:0b:
         b2:88:df:e1:35:4d:24:25:41:ad:ef:86:a6:36:8c:cd:96:dd:
         6c:03:00:b9:25:05:e8:f8:5f:6e:98:41:26:f3:e8:f7:5e:69:
         d9:69:a2:d3
-----BEGIN CERTIFICATE-----
MIIDzzCCAregAwIBAgIBAjANBgkqhkiG9w0BAQUFADB0MRMwEQYKCZImiZPyLGQB
GRYDb3JnMRYwFAYKCZImiZPyLGQBGRYGc2ltcGxlMRMwEQYDVQQKDApTaW1wbGUg
SW5jMRcwFQYDVQQLDA5TaW1wbGUgUm9vdCBDQTEXMBUGA1UEAwwOU2ltcGxlIFJv
b3QgQ0EwHhcNMjMxMjAxMDUxNzUxWhcNMzMxMTMwMDUxNzUxWjB6MRMwEQYKCZIm
iZPyLGQBGRYDb3JnMRYwFAYKCZImiZPyLGQBGRYGc2ltcGxlMRMwEQYDVQQKDApT
aW1wbGUgSW5jMRowGAYDVQQLDBFTaW1wbGUgU2lnbmluZyBDQTEaMBgGA1UEAwwR
U2ltcGxlIFNpZ25pbmcgQ0EwggEiMA0GCSqGSIb3DQEBAQUAA4IBDwAwggEKAoIB
AQDKihKoX2+rbVov6Kro13YNzjDWx1FCFtRINyI652Ip5Y0MbT7xsL0OSZkrABEQ
+hHDcd0DO3T4IdXPgcH8NTf9iz7I/30uC7HB6b/5r8fWYGctoBylFyIJlUK2doL7
7v4yLmThxlLq+eq0QAxflMmLSsthX7Hmm3gwD2e9ArwAdvf0GmKe1M/q965OFu24
YqHpYsvJFILUyLG6rKNrl4EroNQqNZMmls6XjF8a6g8TZoyane44/DJlrf+qfWss
fdUom87h9Z+WpZ9D7XcKWiuYuVhTyxqsRjMOzMPYiZFU67iCl+lcjJmwRZlgAbQG
uFnoOHKmD4e3e1l9GcvizoLPAgMBAAGjZjBkMA4GA1UdDwEB/wQEAwIBBjASBgNV
HRMBAf8ECDAGAQH/AgEAMB0GA1UdDgQWBBTEOl7TVgqHtz+j9sR5FPI2aiPVsTAf
BgNVHSMEGDAWgBTldNm+mXIgI0wJ3KINQ6QWHWWw7DANBgkqhkiG9w0BAQUFAAOC
AQEAIsAgg8sse22voYJA6Xv+eITAFFgjZAaWeYA4kaiHhXiwkYEJYITSlhbemUF9
GgQ8Hq84i7vReoRqGtUnZgBY6LJRiU9fit4WE/JLQsGbMLR3+O/NBw2iPsKqitfs
EnJJpFtRt0ThaGdrKKdj6e11vKDSsjkExbbFfWewYNwdEhHGyJO6ON5FWz2pwUYX
+qN9uqe87n98+8iYPJ76a2ew+tUwSEbOSKPjgZjvSg43m6+xscwrUwRMblRIStx4
nJAv+XFUiltAsZgI+c2LckjD59uAZAlFMbQLsojf4TVNJCVBre+GpjaMzZbdbAMA
uSUF6PhfbphBJvPo915p2Wmi0w==
-----END CERTIFICATE-----
Certificate:
    Data:
        Version: 3 (0x2)
        Serial Number: 1 (0x1)
        Signature Algorithm: sha1WithRSAEncryption
        Issuer: DC=org, DC=simple, O=Simple Inc, OU=Simple Root CA, CN=Simple Root CA
        Validity
            Not Before: Dec  1 05:14:49 2023 GMT
            Not After : Nov 30 05:14:49 2033 GMT
        Subject: DC=org, DC=simple, O=Simple Inc, OU=Simple Root CA, CN=Simple Root CA
        Subject Public Key Info:
            Public Key Algorithm: rsaEncryption
                RSA Public-Key: (2048 bit)
                Modulus:
                    00:ad:c4:12:95:14:a0:f5:f6:ef:c9:26:0a:4b:45:
                    d0:fe:c3:0b:07:e5:7f:a0:c1:4f:b8:ca:b2:0d:df:
                    65:8b:64:ae:a2:2d:b3:63:ee:15:02:67:33:70:75:
                    8f:eb:e7:d6:ee:b8:12:91:4a:61:10:64:50:a6:77:
                    7e:a2:86:fe:2c:b0:06:6a:04:6e:88:e2:9c:ac:4e:
                    a9:f0:d9:11:9c:a2:60:c0:10:be:20:25:19:e9:46:
                    d7:97:77:03:e2:64:96:85:55:4f:42:31:d8:1f:75:
                    94:e2:20:e7:95:7e:e5:b9:76:91:59:e6:98:04:73:
                    71:a8:c8:7a:39:1d:fe:7c:39:27:4f:20:4d:12:f3:
                    0b:c3:7a:80:4f:4c:ed:6f:0e:90:50:08:47:45:fc:
                    b3:fd:be:0c:43:8a:cd:29:ec:c5:a2:68:9a:dc:cb:
                    03:f4:32:70:5d:f5:2f:11:ec:0d:15:f0:eb:6d:d4:
                    09:60:ba:35:d2:0f:e5:07:07:d1:49:76:b9:e4:57:
                    d8:b3:80:73:c9:cd:bd:5c:bb:a1:31:31:da:6b:72:
                    cd:d0:0d:da:20:a4:1d:14:25:09:29:76:67:80:21:
                    75:f5:d2:71:48:31:48:a9:b8:78:35:bc:c4:56:80:
                    78:96:d4:ad:96:9e:37:a0:3f:84:6d:1c:3f:05:ca:
                    1a:55
                Exponent: 65537 (0x10001)
        X509v3 extensions:
            X509v3 Key Usage: critical
                Certificate Sign, CRL Sign
            X509v3 Basic Constraints: critical
                CA:TRUE
            X509v3 Subject Key Identifier: 
                E5:74:D9:BE:99:72:20:23:4C:09:DC:A2:0D:43:A4:16:1D:65:B0:EC
            X509v3 Authority Key Identifier: 
                keyid:E5:74:D9:BE:99:72:20:23:4C:09:DC:A2:0D:43:A4:16:1D:65:B0:EC

    Signature Algorithm: sha1WithRSAEncryption
         49:55:62:a9:53:4f:04:60:48:ce:58:1f:40:e1:b7:e1:4a:78:
         ef:11:17:56:ac:68:1e:88:81:aa:a0:31:15:79:78:47:6e:03:
         9f:d7:65:40:38:bb:fa:59:88:f0:a9:ca:09:c1:65:73:29:dc:
         d2:3c:df:36:ef:5a:84:22:c5:71:47:52:8e:0d:40:21:07:4d:
         d9:3f:53:8c:61:b9:75:9b:bf:4d:a4:0c:cd:3e:17:cf:22:18:
         83:0b:d3:eb:52:59:65:40:5e:06:a8:95:0a:54:87:ad:05:32:
         9b:0e:e8:a4:67:37:31:7b:c3:e3:d4:81:10:bb:a6:18:cb:dd:
         6a:b9:23:14:f8:4b:29:68:68:bb:5d:00:22:6f:f7:2b:01:4f:
         ae:5a:b1:c8:a5:1c:01:f9:5b:01:2e:6c:61:86:b1:d2:56:fe:
         ec:0a:6d:81:47:7b:e2:ec:5f:e2:29:0c:31:53:9f:a9:2c:1b:
         2d:79:6f:42:96:55:b8:68:51:1d:91:c6:c4:22:fb:73:1c:bc:
         74:01:1d:96:d3:df:e3:4d:1c:72:97:d9:be:78:79:58:47:e6:
         e2:41:a8:1b:a6:c7:90:7d:db:b1:f9:01:3f:9d:3f:07:7e:ae:
         0c:af:8b:6a:42:62:ca:d3:ca:78:5b:f0:08:40:ef:73:40:8b:
         bd:4e:3f:ae
-----BEGIN CERTIFICATE-----
MIIDxjCCAq6gAwIBAgIBATANBgkqhkiG9w0BAQUFADB0MRMwEQYKCZImiZPyLGQB
GRYDb3JnMRYwFAYKCZImiZPyLGQBGRYGc2ltcGxlMRMwEQYDVQQKDApTaW1wbGUg
SW5jMRcwFQYDVQQLDA5TaW1wbGUgUm9vdCBDQTEXMBUGA1UEAwwOU2ltcGxlIFJv
b3QgQ0EwHhcNMjMxMjAxMDUxNDQ5WhcNMzMxMTMwMDUxNDQ5WjB0MRMwEQYKCZIm
iZPyLGQBGRYDb3JnMRYwFAYKCZImiZPyLGQBGRYGc2ltcGxlMRMwEQYDVQQKDApT
aW1wbGUgSW5jMRcwFQYDVQQLDA5TaW1wbGUgUm9vdCBDQTEXMBUGA1UEAwwOU2lt
cGxlIFJvb3QgQ0EwggEiMA0GCSqGSIb3DQEBAQUAA4IBDwAwggEKAoIBAQCtxBKV
FKD19u/JJgpLRdD+wwsH5X+gwU+4yrIN32WLZK6iLbNj7hUCZzNwdY/r59buuBKR
SmEQZFCmd36ihv4ssAZqBG6I4pysTqnw2RGcomDAEL4gJRnpRteXdwPiZJaFVU9C
MdgfdZTiIOeVfuW5dpFZ5pgEc3GoyHo5Hf58OSdPIE0S8wvDeoBPTO1vDpBQCEdF
/LP9vgxDis0p7MWiaJrcywP0MnBd9S8R7A0V8Ott1AlgujXSD+UHB9FJdrnkV9iz
gHPJzb1cu6ExMdprcs3QDdogpB0UJQkpdmeAIXX10nFIMUipuHg1vMRWgHiW1K2W
njegP4RtHD8FyhpVAgMBAAGjYzBhMA4GA1UdDwEB/wQEAwIBBjAPBgNVHRMBAf8E
BTADAQH/MB0GA1UdDgQWBBTldNm+mXIgI0wJ3KINQ6QWHWWw7DAfBgNVHSMEGDAW
gBTldNm+mXIgI0wJ3KINQ6QWHWWw7DANBgkqhkiG9w0BAQUFAAOCAQEASVViqVNP
BGBIzlgfQOG34Up47xEXVqxoHoiBqqAxFXl4R24Dn9dlQDi7+lmI8KnKCcFlcync
0jzfNu9ahCLFcUdSjg1AIQdN2T9TjGG5dZu/TaQMzT4XzyIYgwvT61JZZUBeBqiV
ClSHrQUymw7opGc3MXvD49SBELumGMvdarkjFPhLKWhou10AIm/3KwFPrlqxyKUc
AflbAS5sYYax0lb+7AptgUd74uxf4ikMMVOfqSwbLXlvQpZVuGhRHZHGxCL7cxy8
dAEdltPf400ccpfZvnh5WEfm4kGoG6bHkH3bsfkBP50/B36uDK+LakJiytPKeFvw
CEDvc0CLvU4/rg==
-----END CERTIFICATE-----
